target datalayout = "e-m:e-p270:32:32-p271:32:32-p272:64:64-i64:64-i128:128-f80:128-n8:16:32:64-S128"
target triple = "x86_64-pc-linux-gnu"

%struct.Ivy_Obj_t_ = type { i32, i32, i32, i32, ptr, ptr, ptr, ptr, ptr, ptr, ptr, ptr }

; Function Attrs: nounwind uwtable
define internal i32 @Ivy_IsComplement(ptr noundef %0) #0 {
  %2 = alloca ptr, align 8
  store ptr %0, ptr %2, align 8
  %3 = load ptr, ptr %2, align 8
  %4 = ptrtoint ptr %3 to i64
  %5 = and i64 %4, 1
  %6 = trunc i64 %5 to i32
  ret i32 %6
}

; Function Attrs: nounwind uwtable
define internal i32 @Ivy_ObjId(ptr noundef %0) #0 {
  %2 = alloca ptr, align 8
  store ptr %0, ptr %2, align 8
  %3 = load ptr, ptr %2, align 8
  %4 = getelementptr inbounds %struct.Ivy_Obj_t_, ptr %3, i32 0, i32 0
  %5 = load i32, ptr %4, align 8
  ret i32 %5
}

; Function Attrs: nounwind uwtable
define internal ptr @Ivy_Regular(ptr noundef %0) #0 {
  %2 = alloca ptr, align 8
  store ptr %0, ptr %2, align 8
  %3 = load ptr, ptr %2, align 8
  %4 = ptrtoint ptr %3 to i64
  %5 = and i64 %4, -2
  %6 = inttoptr i64 %5 to ptr
  ret ptr %6
}

; Function Attrs: nounwind uwtable
define internal i32 @Ivy_ObjFaninC1(ptr noundef %0) #0 {
  %2 = alloca ptr, align 8
  store ptr %0, ptr %2, align 8
  %3 = load ptr, ptr %2, align 8
  %4 = getelementptr inbounds %struct.Ivy_Obj_t_, ptr %3, i32 0, i32 5
  %5 = load ptr, ptr %4, align 8
  %6 = call i32 @Ivy_IsComplement(ptr noundef %5)
  ret i32 %6
}

; Function Attrs: nounwind uwtable
define internal i32 @Ivy_ObjFaninId1(ptr noundef %0) #0 {
  %2 = alloca ptr, align 8
  store ptr %0, ptr %2, align 8
  %3 = load ptr, ptr %2, align 8
  %4 = getelementptr inbounds %struct.Ivy_Obj_t_, ptr %3, i32 0, i32 5
  %5 = load ptr, ptr %4, align 8
  %6 = icmp ne ptr %5, null
  br i1 %6, label %7, label %13

7:                                                ; preds = %1
  %8 = load ptr, ptr %2, align 8
  %9 = getelementptr inbounds %struct.Ivy_Obj_t_, ptr %8, i32 0, i32 5
  %10 = load ptr, ptr %9, align 8
  %11 = call ptr @Ivy_Regular(ptr noundef %10)
  %12 = call i32 @Ivy_ObjId(ptr noundef %11)
  br label %14

13:                                               ; preds = %1
  br label %14

14:                                               ; preds = %13, %7
  %15 = phi i32 [ %12, %7 ], [ 0, %13 ]
  ret i32 %15
}

; Function Attrs: nounwind uwtable
define internal ptr @Ivy_ObjChild0(ptr noundef %0) #0 {
  %2 = alloca ptr, align 8
  store ptr %0, ptr %2, align 8
  %3 = load ptr, ptr %2, align 8
  %4 = getelementptr inbounds %struct.Ivy_Obj_t_, ptr %3, i32 0, i32 4
  %5 = load ptr, ptr %4, align 8
  ret ptr %5
}

; Function Attrs: nounwind uwtable
define internal ptr @Ivy_Not(ptr noundef %0) #0 {
  %2 = alloca ptr, align 8
  store ptr %0, ptr %2, align 8
  %3 = load ptr, ptr %2, align 8
  %4 = ptrtoint ptr %3 to i64
  %5 = xor i64 %4, 1
  %6 = inttoptr i64 %5 to ptr
  ret ptr %6
}

; Function Attrs: nounwind uwtable
define internal ptr @Ivy_ObjChild1(ptr noundef %0) #0 {
  %2 = alloca ptr, align 8
  store ptr %0, ptr %2, align 8
  %3 = load ptr, ptr %2, align 8
  %4 = getelementptr inbounds %struct.Ivy_Obj_t_, ptr %3, i32 0, i32 5
  %5 = load ptr, ptr %4, align 8
  ret ptr %5
}

; Function Attrs: nounwind uwtable
define internal i32 @Ivy_ObjFaninC0(ptr noundef %0) #0 {
  %2 = alloca ptr, align 8
  store ptr %0, ptr %2, align 8
  %3 = load ptr, ptr %2, align 8
  %4 = getelementptr inbounds %struct.Ivy_Obj_t_, ptr %3, i32 0, i32 4
  %5 = load ptr, ptr %4, align 8
  %6 = call i32 @Ivy_IsComplement(ptr noundef %5)
  ret i32 %6
}

; Function Attrs: nounwind uwtable
define internal i32 @Ivy_ObjFaninId0(ptr noundef %0) #0 {
  %2 = alloca ptr, align 8
  store ptr %0, ptr %2, align 8
  %3 = load ptr, ptr %2, align 8
  %4 = getelementptr inbounds %struct.Ivy_Obj_t_, ptr %3, i32 0, i32 4
  %5 = load ptr, ptr %4, align 8
  %6 = icmp ne ptr %5, null
  br i1 %6, label %7, label %13

7:                                                ; preds = %1
  %8 = load ptr, ptr %2, align 8
  %9 = getelementptr inbounds %struct.Ivy_Obj_t_, ptr %8, i32 0, i32 4
  %10 = load ptr, ptr %9, align 8
  %11 = call ptr @Ivy_Regular(ptr noundef %10)
  %12 = call i32 @Ivy_ObjId(ptr noundef %11)
  br label %14

13:                                               ; preds = %1
  br label %14

14:                                               ; preds = %13, %7
  %15 = phi i32 [ %12, %7 ], [ 0, %13 ]
  ret i32 %15
}

; Function Attrs: nounwind uwtable
define internal ptr @Ivy_ObjFanin1(ptr noundef %0) #0 {
  %2 = alloca ptr, align 8
  store ptr %0, ptr %2, align 8
  %3 = load ptr, ptr %2, align 8
  %4 = getelementptr inbounds %struct.Ivy_Obj_t_, ptr %3, i32 0, i32 5
  %5 = load ptr, ptr %4, align 8
  %6 = call ptr @Ivy_Regular(ptr noundef %5)
  ret ptr %6
}

; Function Attrs: nounwind uwtable
define internal ptr @Ivy_ObjFanin0(ptr noundef %0) #0 {
  %2 = alloca ptr, align 8
  store ptr %0, ptr %2, align 8
  %3 = load ptr, ptr %2, align 8
  %4 = getelementptr inbounds %struct.Ivy_Obj_t_, ptr %3, i32 0, i32 4
  %5 = load ptr, ptr %4, align 8
  %6 = call ptr @Ivy_Regular(ptr noundef %5)
  ret ptr %6
}

; Function Attrs: nounwind uwtable
define ptr @Ivy_ObjRecognizeMux(ptr noundef %0, ptr noundef %1, ptr noundef %2) #0 {
  %4 = alloca ptr, align 8
  %5 = alloca ptr, align 8
  %6 = alloca ptr, align 8
  %7 = alloca ptr, align 8
  %8 = alloca ptr, align 8
  %9 = alloca ptr, align 8
  store ptr %0, ptr %5, align 8
  store ptr %1, ptr %6, align 8
  store ptr %2, ptr %7, align 8
  %10 = load ptr, ptr %5, align 8
  %11 = call ptr @Ivy_ObjFanin0(ptr noundef %10)
  store ptr %11, ptr %8, align 8
  %12 = load ptr, ptr %5, align 8
  %13 = call ptr @Ivy_ObjFanin1(ptr noundef %12)
  store ptr %13, ptr %9, align 8
  %14 = load ptr, ptr %8, align 8
  %15 = call i32 @Ivy_ObjFaninId0(ptr noundef %14)
  %16 = load ptr, ptr %9, align 8
  %17 = call i32 @Ivy_ObjFaninId0(ptr noundef %16)
  %18 = icmp eq i32 %15, %17
  br i1 %18, label %19, label %52

19:                                               ; preds = %3
  %20 = load ptr, ptr %8, align 8
  %21 = call i32 @Ivy_ObjFaninC0(ptr noundef %20)
  %22 = load ptr, ptr %9, align 8
  %23 = call i32 @Ivy_ObjFaninC0(ptr noundef %22)
  %24 = xor i32 %21, %23
  %25 = icmp ne i32 %24, 0
  br i1 %25, label %26, label %52

26:                                               ; preds = %19
  %27 = load ptr, ptr %8, align 8
  %28 = call i32 @Ivy_ObjFaninC0(ptr noundef %27)
  %29 = icmp ne i32 %28, 0
  br i1 %29, label %30, label %41

30:                                               ; preds = %26
  %31 = load ptr, ptr %9, align 8
  %32 = call ptr @Ivy_ObjChild1(ptr noundef %31)
  %33 = call ptr @Ivy_Not(ptr noundef %32)
  %34 = load ptr, ptr %6, align 8
  store ptr %33, ptr %34, align 8
  %35 = load ptr, ptr %8, align 8
  %36 = call ptr @Ivy_ObjChild1(ptr noundef %35)
  %37 = call ptr @Ivy_Not(ptr noundef %36)
  %38 = load ptr, ptr %7, align 8
  store ptr %37, ptr %38, align 8
  %39 = load ptr, ptr %9, align 8
  %40 = call ptr @Ivy_ObjChild0(ptr noundef %39)
  store ptr %40, ptr %4, align 8
  br label %173

41:                                               ; preds = %26
  %42 = load ptr, ptr %8, align 8
  %43 = call ptr @Ivy_ObjChild1(ptr noundef %42)
  %44 = call ptr @Ivy_Not(ptr noundef %43)
  %45 = load ptr, ptr %6, align 8
  store ptr %44, ptr %45, align 8
  %46 = load ptr, ptr %9, align 8
  %47 = call ptr @Ivy_ObjChild1(ptr noundef %46)
  %48 = call ptr @Ivy_Not(ptr noundef %47)
  %49 = load ptr, ptr %7, align 8
  store ptr %48, ptr %49, align 8
  %50 = load ptr, ptr %8, align 8
  %51 = call ptr @Ivy_ObjChild0(ptr noundef %50)
  store ptr %51, ptr %4, align 8
  br label %173

52:                                               ; preds = %19, %3
  %53 = load ptr, ptr %8, align 8
  %54 = call i32 @Ivy_ObjFaninId0(ptr noundef %53)
  %55 = load ptr, ptr %9, align 8
  %56 = call i32 @Ivy_ObjFaninId1(ptr noundef %55)
  %57 = icmp eq i32 %54, %56
  br i1 %57, label %58, label %91

58:                                               ; preds = %52
  %59 = load ptr, ptr %8, align 8
  %60 = call i32 @Ivy_ObjFaninC0(ptr noundef %59)
  %61 = load ptr, ptr %9, align 8
  %62 = call i32 @Ivy_ObjFaninC1(ptr noundef %61)
  %63 = xor i32 %60, %62
  %64 = icmp ne i32 %63, 0
  br i1 %64, label %65, label %91

65:                                               ; preds = %58
  %66 = load ptr, ptr %8, align 8
  %67 = call i32 @Ivy_ObjFaninC0(ptr noundef %66)
  %68 = icmp ne i32 %67, 0
  br i1 %68, label %69, label %80

69:                                               ; preds = %65
  %70 = load ptr, ptr %9, align 8
  %71 = call ptr @Ivy_ObjChild0(ptr noundef %70)
  %72 = call ptr @Ivy_Not(ptr noundef %71)
  %73 = load ptr, ptr %6, align 8
  store ptr %72, ptr %73, align 8
  %74 = load ptr, ptr %8, align 8
  %75 = call ptr @Ivy_ObjChild1(ptr noundef %74)
  %76 = call ptr @Ivy_Not(ptr noundef %75)
  %77 = load ptr, ptr %7, align 8
  store ptr %76, ptr %77, align 8
  %78 = load ptr, ptr %9, align 8
  %79 = call ptr @Ivy_ObjChild1(ptr noundef %78)
  store ptr %79, ptr %4, align 8
  br label %173

80:                                               ; preds = %65
  %81 = load ptr, ptr %8, align 8
  %82 = call ptr @Ivy_ObjChild1(ptr noundef %81)
  %83 = call ptr @Ivy_Not(ptr noundef %82)
  %84 = load ptr, ptr %6, align 8
  store ptr %83, ptr %84, align 8
  %85 = load ptr, ptr %9, align 8
  %86 = call ptr @Ivy_ObjChild0(ptr noundef %85)
  %87 = call ptr @Ivy_Not(ptr noundef %86)
  %88 = load ptr, ptr %7, align 8
  store ptr %87, ptr %88, align 8
  %89 = load ptr, ptr %8, align 8
  %90 = call ptr @Ivy_ObjChild0(ptr noundef %89)
  store ptr %90, ptr %4, align 8
  br label %173

91:                                               ; preds = %58, %52
  %92 = load ptr, ptr %8, align 8
  %93 = call i32 @Ivy_ObjFaninId1(ptr noundef %92)
  %94 = load ptr, ptr %9, align 8
  %95 = call i32 @Ivy_ObjFaninId0(ptr noundef %94)
  %96 = icmp eq i32 %93, %95
  br i1 %96, label %97, label %130

97:                                               ; preds = %91
  %98 = load ptr, ptr %8, align 8
  %99 = call i32 @Ivy_ObjFaninC1(ptr noundef %98)
  %100 = load ptr, ptr %9, align 8
  %101 = call i32 @Ivy_ObjFaninC0(ptr noundef %100)
  %102 = xor i32 %99, %101
  %103 = icmp ne i32 %102, 0
  br i1 %103, label %104, label %130

104:                                              ; preds = %97
  %105 = load ptr, ptr %8, align 8
  %106 = call i32 @Ivy_ObjFaninC1(ptr noundef %105)
  %107 = icmp ne i32 %106, 0
  br i1 %107, label %108, label %119

108:                                              ; preds = %104
  %109 = load ptr, ptr %9, align 8
  %110 = call ptr @Ivy_ObjChild1(ptr noundef %109)
  %111 = call ptr @Ivy_Not(ptr noundef %110)
  %112 = load ptr, ptr %6, align 8
  store ptr %111, ptr %112, align 8
  %113 = load ptr, ptr %8, align 8
  %114 = call ptr @Ivy_ObjChild0(ptr noundef %113)
  %115 = call ptr @Ivy_Not(ptr noundef %114)
  %116 = load ptr, ptr %7, align 8
  store ptr %115, ptr %116, align 8
  %117 = load ptr, ptr %9, align 8
  %118 = call ptr @Ivy_ObjChild0(ptr noundef %117)
  store ptr %118, ptr %4, align 8
  br label %173

119:                                              ; preds = %104
  %120 = load ptr, ptr %8, align 8
  %121 = call ptr @Ivy_ObjChild0(ptr noundef %120)
  %122 = call ptr @Ivy_Not(ptr noundef %121)
  %123 = load ptr, ptr %6, align 8
  store ptr %122, ptr %123, align 8
  %124 = load ptr, ptr %9, align 8
  %125 = call ptr @Ivy_ObjChild1(ptr noundef %124)
  %126 = call ptr @Ivy_Not(ptr noundef %125)
  %127 = load ptr, ptr %7, align 8
  store ptr %126, ptr %127, align 8
  %128 = load ptr, ptr %8, align 8
  %129 = call ptr @Ivy_ObjChild1(ptr noundef %128)
  store ptr %129, ptr %4, align 8
  br label %173

130:                                              ; preds = %97, %91
  %131 = load ptr, ptr %8, align 8
  %132 = call i32 @Ivy_ObjFaninId1(ptr noundef %131)
  %133 = load ptr, ptr %9, align 8
  %134 = call i32 @Ivy_ObjFaninId1(ptr noundef %133)
  %135 = icmp eq i32 %132, %134
  br i1 %135, label %136, label %169

136:                                              ; preds = %130
  %137 = load ptr, ptr %8, align 8
  %138 = call i32 @Ivy_ObjFaninC1(ptr noundef %137)
  %139 = load ptr, ptr %9, align 8
  %140 = call i32 @Ivy_ObjFaninC1(ptr noundef %139)
  %141 = xor i32 %138, %140
  %142 = icmp ne i32 %141, 0
  br i1 %142, label %143, label %169

143:                                              ; preds = %136
  %144 = load ptr, ptr %8, align 8
  %145 = call i32 @Ivy_ObjFaninC1(ptr noundef %144)
  %146 = icmp ne i32 %145, 0
  br i1 %146, label %147, label %158

147:                                              ; preds = %143
  %148 = load ptr, ptr %9, align 8
  %149 = call ptr @Ivy_ObjChild0(ptr noundef %148)
  %150 = call ptr @Ivy_Not(ptr noundef %149)
  %151 = load ptr, ptr %6, align 8
  store ptr %150, ptr %151, align 8
  %152 = load ptr, ptr %8, align 8
  %153 = call ptr @Ivy_ObjChild0(ptr noundef %152)
  %154 = call ptr @Ivy_Not(ptr noundef %153)
  %155 = load ptr, ptr %7, align 8
  store ptr %154, ptr %155, align 8
  %156 = load ptr, ptr %9, align 8
  %157 = call ptr @Ivy_ObjChild1(ptr noundef %156)
  store ptr %157, ptr %4, align 8
  br label %173

158:                                              ; preds = %143
  %159 = load ptr, ptr %8, align 8
  %160 = call ptr @Ivy_ObjChild0(ptr noundef %159)
  %161 = call ptr @Ivy_Not(ptr noundef %160)
  %162 = load ptr, ptr %6, align 8
  store ptr %161, ptr %162, align 8
  %163 = load ptr, ptr %9, align 8
  %164 = call ptr @Ivy_ObjChild0(ptr noundef %163)
  %165 = call ptr @Ivy_Not(ptr noundef %164)
  %166 = load ptr, ptr %7, align 8
  store ptr %165, ptr %166, align 8
  %167 = load ptr, ptr %8, align 8
  %168 = call ptr @Ivy_ObjChild1(ptr noundef %167)
  store ptr %168, ptr %4, align 8
  br label %173

169:                                              ; preds = %136, %130
  br label %170

170:                                              ; preds = %169
  br label %171

171:                                              ; preds = %170
  br label %172

172:                                              ; preds = %171
  store ptr null, ptr %4, align 8
  br label %173

173:                                              ; preds = %172, %158, %147, %119, %108, %80, %69, %41, %30
  %174 = load ptr, ptr %4, align 8
  ret ptr %174
}