; Function Attrs: mustprogress nofree norecurse nosync nounwind willreturn memory(read, argmem: readwrite, inaccessiblemem: none) uwtable
define ptr @Ivy_ObjRecognizeMux(ptr noundef readonly captures(none) %0, ptr noundef writeonly captures(none) %1, ptr noundef writeonly captures(none) %2) local_unnamed_addr #8 {
  %4 = getelementptr i8, ptr %0, i64 16
  %.val = load ptr, ptr %4, align 8
  %5 = ptrtoint ptr %.val to i64
  %6 = and i64 %5, -2
  %7 = inttoptr i64 %6 to ptr
  %8 = getelementptr i8, ptr %0, i64 24
  %.val70 = load ptr, ptr %8, align 8
  %9 = ptrtoint ptr %.val70 to i64
  %10 = and i64 %9, -2
  %11 = inttoptr i64 %10 to ptr
  %12 = getelementptr i8, ptr %7, i64 16
  %.val86 = load ptr, ptr %12, align 8
  %.not.i = icmp eq ptr %.val86, null
  br i1 %.not.i, label %Ivy_ObjFaninId0.exit, label %13

13:                                               ; preds = %3
  %14 = ptrtoint ptr %.val86 to i64
  %15 = and i64 %14, -2
  %16 = inttoptr i64 %15 to ptr
  %.val.i = load i32, ptr %16, align 8
  br label %Ivy_ObjFaninId0.exit

Ivy_ObjFaninId0.exit:                             ; preds = %3, %13
  %17 = phi i32 [ %.val.i, %13 ], [ 0, %3 ]
  %18 = getelementptr i8, ptr %11, i64 16
  %.val85 = load ptr, ptr %18, align 8
  %.not.i115 = icmp eq ptr %.val85, null
  br i1 %.not.i115, label %Ivy_ObjFaninId0.exit117, label %19

19:                                               ; preds = %Ivy_ObjFaninId0.exit
  %20 = ptrtoint ptr %.val85 to i64
  %21 = and i64 %20, -2
  %22 = inttoptr i64 %21 to ptr
  %.val.i116 = load i32, ptr %22, align 8
  br label %Ivy_ObjFaninId0.exit117

Ivy_ObjFaninId0.exit117:                          ; preds = %Ivy_ObjFaninId0.exit, %19
  %23 = phi i32 [ %.val.i116, %19 ], [ 0, %Ivy_ObjFaninId0.exit ]
  %24 = icmp eq i32 %17, %23
  br i1 %24, label %25, label %51

25:                                               ; preds = %Ivy_ObjFaninId0.exit117
  %26 = ptrtoint ptr %.val86 to i64
  %27 = trunc i64 %26 to i32
  %28 = and i32 %27, 1
  %29 = ptrtoint ptr %.val85 to i64
  %30 = trunc i64 %29 to i32
  %31 = and i32 %30, 1
  %.not = icmp eq i32 %28, %31
  br i1 %.not, label %51, label %32

32:                                               ; preds = %25
  %.not69 = icmp eq i32 %28, 0
  br i1 %.not69, label %42, label %33

33:                                               ; preds = %32
  %34 = getelementptr i8, ptr %11, i64 24
  %.val91 = load ptr, ptr %34, align 8
  %35 = ptrtoint ptr %.val91 to i64
  %36 = xor i64 %35, 1
  %37 = inttoptr i64 %36 to ptr
  store ptr %37, ptr %1, align 8
  %38 = getelementptr i8, ptr %7, i64 24
  %.val92 = load ptr, ptr %38, align 8
  %39 = ptrtoint ptr %.val92 to i64
  %40 = xor i64 %39, 1
  %41 = inttoptr i64 %40 to ptr
  store ptr %41, ptr %2, align 8
  %.val103 = load ptr, ptr %18, align 8
  br label %157

42:                                               ; preds = %32
  %43 = getelementptr i8, ptr %7, i64 24
  %.val93 = load ptr, ptr %43, align 8
  %44 = ptrtoint ptr %.val93 to i64
  %45 = xor i64 %44, 1
  %46 = inttoptr i64 %45 to ptr
  store ptr %46, ptr %1, align 8
  %47 = getelementptr i8, ptr %11, i64 24
  %.val94 = load ptr, ptr %47, align 8
  %48 = ptrtoint ptr %.val94 to i64
  %49 = xor i64 %48, 1
  %50 = inttoptr i64 %49 to ptr
  store ptr %50, ptr %2, align 8
  %.val104 = load ptr, ptr %12, align 8
  br label %157

51:                                               ; preds = %25, %Ivy_ObjFaninId0.exit117
  br i1 %.not.i, label %Ivy_ObjFaninId0.exit120, label %52

52:                                               ; preds = %51
  %53 = ptrtoint ptr %.val86 to i64
  %54 = and i64 %53, -2
  %55 = inttoptr i64 %54 to ptr
  %.val.i119 = load i32, ptr %55, align 8
  br label %Ivy_ObjFaninId0.exit120

Ivy_ObjFaninId0.exit120:                          ; preds = %51, %52
  %56 = phi i32 [ %.val.i119, %52 ], [ 0, %51 ]
  %57 = getelementptr i8, ptr %11, i64 24
  %.val90 = load ptr, ptr %57, align 8
  %.not.i121 = icmp eq ptr %.val90, null
  br i1 %.not.i121, label %Ivy_ObjFaninId1.exit, label %58

58:                                               ; preds = %Ivy_ObjFaninId0.exit120
  %59 = ptrtoint ptr %.val90 to i64
  %60 = and i64 %59, -2
  %61 = inttoptr i64 %60 to ptr
  %.val.i122 = load i32, ptr %61, align 8
  br label %Ivy_ObjFaninId1.exit

Ivy_ObjFaninId1.exit:                             ; preds = %Ivy_ObjFaninId0.exit120, %58
  %62 = phi i32 [ %.val.i122, %58 ], [ 0, %Ivy_ObjFaninId0.exit120 ]
  %63 = icmp eq i32 %56, %62
  br i1 %63, label %64, label %88

64:                                               ; preds = %Ivy_ObjFaninId1.exit
  %65 = ptrtoint ptr %.val86 to i64
  %66 = trunc i64 %65 to i32
  %67 = and i32 %66, 1
  %68 = ptrtoint ptr %.val90 to i64
  %69 = trunc i64 %68 to i32
  %70 = and i32 %69, 1
  %.not63 = icmp eq i32 %67, %70
  br i1 %.not63, label %88, label %71

71:                                               ; preds = %64
  %.not68 = icmp eq i32 %67, 0
  br i1 %.not68, label %80, label %72

72:                                               ; preds = %71
  %73 = ptrtoint ptr %.val85 to i64
  %74 = xor i64 %73, 1
  %75 = inttoptr i64 %74 to ptr
  store ptr %75, ptr %1, align 8
  %76 = getelementptr i8, ptr %7, i64 24
  %.val95 = load ptr, ptr %76, align 8
  %77 = ptrtoint ptr %.val95 to i64
  %78 = xor i64 %77, 1
  %79 = inttoptr i64 %78 to ptr
  store ptr %79, ptr %2, align 8
  %.val96 = load ptr, ptr %57, align 8
  br label %157

80:                                               ; preds = %71
  %81 = getelementptr i8, ptr %7, i64 24
  %.val97 = load ptr, ptr %81, align 8
  %82 = ptrtoint ptr %.val97 to i64
  %83 = xor i64 %82, 1
  %84 = inttoptr i64 %83 to ptr
  store ptr %84, ptr %1, align 8
  %.val106 = load ptr, ptr %18, align 8
  %85 = ptrtoint ptr %.val106 to i64
  %86 = xor i64 %85, 1
  %87 = inttoptr i64 %86 to ptr
  store ptr %87, ptr %2, align 8
  %.val107 = load ptr, ptr %12, align 8
  br label %157

88:                                               ; preds = %64, %Ivy_ObjFaninId1.exit
  %89 = getelementptr i8, ptr %7, i64 24
  %.val89 = load ptr, ptr %89, align 8
  %.not.i123 = icmp eq ptr %.val89, null
  br i1 %.not.i123, label %Ivy_ObjFaninId1.exit125, label %90

90:                                               ; preds = %88
  %91 = ptrtoint ptr %.val89 to i64
  %92 = and i64 %91, -2
  %93 = inttoptr i64 %92 to ptr
  %.val.i124 = load i32, ptr %93, align 8
  br label %Ivy_ObjFaninId1.exit125

Ivy_ObjFaninId1.exit125:                          ; preds = %88, %90
  %94 = phi i32 [ %.val.i124, %90 ], [ 0, %88 ]
  br i1 %.not.i115, label %Ivy_ObjFaninId0.exit128, label %95

95:                                               ; preds = %Ivy_ObjFaninId1.exit125
  %96 = ptrtoint ptr %.val85 to i64
  %97 = and i64 %96, -2
  %98 = inttoptr i64 %97 to ptr
  %.val.i127 = load i32, ptr %98, align 8
  br label %Ivy_ObjFaninId0.exit128

Ivy_ObjFaninId0.exit128:                          ; preds = %Ivy_ObjFaninId1.exit125, %95
  %99 = phi i32 [ %.val.i127, %95 ], [ 0, %Ivy_ObjFaninId1.exit125 ]
  %100 = icmp eq i32 %94, %99
  br i1 %100, label %101, label %123

101:                                              ; preds = %Ivy_ObjFaninId0.exit128
  %102 = ptrtoint ptr %.val89 to i64
  %103 = trunc i64 %102 to i32
  %104 = and i32 %103, 1
  %105 = ptrtoint ptr %.val85 to i64
  %106 = trunc i64 %105 to i32
  %107 = and i32 %106, 1
  %.not64 = icmp eq i32 %104, %107
  br i1 %.not64, label %123, label %108

108:                                              ; preds = %101
  %.not67 = icmp eq i32 %104, 0
  br i1 %.not67, label %116, label %109

109:                                              ; preds = %108
  %110 = ptrtoint ptr %.val90 to i64
  %111 = xor i64 %110, 1
  %112 = inttoptr i64 %111 to ptr
  store ptr %112, ptr %1, align 8
  %.val108 = load ptr, ptr %12, align 8
  %113 = ptrtoint ptr %.val108 to i64
  %114 = xor i64 %113, 1
  %115 = inttoptr i64 %114 to ptr
  store ptr %115, ptr %2, align 8
  %.val109 = load ptr, ptr %18, align 8
  br label %157

116:                                              ; preds = %108
  %117 = ptrtoint ptr %.val86 to i64
  %118 = xor i64 %117, 1
  %119 = inttoptr i64 %118 to ptr
  store ptr %119, ptr %1, align 8
  %.val99 = load ptr, ptr %57, align 8
  %120 = ptrtoint ptr %.val99 to i64
  %121 = xor i64 %120, 1
  %122 = inttoptr i64 %121 to ptr
  store ptr %122, ptr %2, align 8
  %.val100 = load ptr, ptr %89, align 8
  br label %157

123:                                              ; preds = %101, %Ivy_ObjFaninId0.exit128
  br i1 %.not.i123, label %Ivy_ObjFaninId1.exit131, label %124

124:                                              ; preds = %123
  %125 = ptrtoint ptr %.val89 to i64
  %126 = and i64 %125, -2
  %127 = inttoptr i64 %126 to ptr
  %.val.i130 = load i32, ptr %127, align 8
  br label %Ivy_ObjFaninId1.exit131

Ivy_ObjFaninId1.exit131:                          ; preds = %123, %124
  %128 = phi i32 [ %.val.i130, %124 ], [ 0, %123 ]
  br i1 %.not.i121, label %Ivy_ObjFaninId1.exit134, label %129

129:                                              ; preds = %Ivy_ObjFaninId1.exit131
  %130 = ptrtoint ptr %.val90 to i64
  %131 = and i64 %130, -2
  %132 = inttoptr i64 %131 to ptr
  %.val.i133 = load i32, ptr %132, align 8
  br label %Ivy_ObjFaninId1.exit134

Ivy_ObjFaninId1.exit134:                          ; preds = %Ivy_ObjFaninId1.exit131, %129
  %133 = phi i32 [ %.val.i133, %129 ], [ 0, %Ivy_ObjFaninId1.exit131 ]
  %134 = icmp eq i32 %128, %133
  br i1 %134, label %135, label %157

135:                                              ; preds = %Ivy_ObjFaninId1.exit134
  %136 = ptrtoint ptr %.val89 to i64
  %137 = trunc i64 %136 to i32
  %138 = and i32 %137, 1
  %139 = ptrtoint ptr %.val90 to i64
  %140 = trunc i64 %139 to i32
  %141 = and i32 %140, 1
  %.not65 = icmp eq i32 %138, %141
  br i1 %.not65, label %157, label %142

142:                                              ; preds = %135
  %.not66 = icmp eq i32 %138, 0
  br i1 %.not66, label %150, label %143

143:                                              ; preds = %142
  %144 = ptrtoint ptr %.val85 to i64
  %145 = xor i64 %144, 1
  %146 = inttoptr i64 %145 to ptr
  store ptr %146, ptr %1, align 8
  %.val112 = load ptr, ptr %12, align 8
  %147 = ptrtoint ptr %.val112 to i64
  %148 = xor i64 %147, 1
  %149 = inttoptr i64 %148 to ptr
  store ptr %149, ptr %2, align 8
  %.val101 = load ptr, ptr %57, align 8
  br label %157

150:                                              ; preds = %142
  %151 = ptrtoint ptr %.val86 to i64
  %152 = xor i64 %151, 1
  %153 = inttoptr i64 %152 to ptr
  store ptr %153, ptr %1, align 8
  %.val114 = load ptr, ptr %18, align 8
  %154 = ptrtoint ptr %.val114 to i64
  %155 = xor i64 %154, 1
  %156 = inttoptr i64 %155 to ptr
  store ptr %156, ptr %2, align 8
  %.val102 = load ptr, ptr %89, align 8
  br label %157

157:                                              ; preds = %135, %Ivy_ObjFaninId1.exit134, %150, %143, %116, %109, %80, %72, %42, %33
  %.0 = phi ptr [ %.val103, %33 ], [ %.val104, %42 ], [ %.val96, %72 ], [ %.val107, %80 ], [ %.val109, %109 ], [ %.val100, %116 ], [ %.val101, %143 ], [ %.val102, %150 ], [ null, %Ivy_ObjFaninId1.exit134 ], [ null, %135 ]
  ret ptr %.0
}